; Function Attrs: mustprogress nounwind uwtable
define dso_local void @_ZN4llvm15ConstantPtrAuthC2EPNS_8ConstantEPNS_11ConstantIntES4_S2_(ptr noundef nonnull align 8 dereferenceable(24) %0, ptr noundef %1, ptr noundef %2, ptr noundef %3, ptr noundef %4) unnamed_addr #0 align 2 {
  %6 = getelementptr inbounds nuw i8, ptr %1, i64 8
  %7 = load ptr, ptr %6, align 8
  tail call void @_ZN4llvm5ValueC2EPNS_4TypeEj(ptr noundef nonnull align 8 dereferenceable(24) %0, ptr noundef %7, i32 noundef 8) #28
  %8 = getelementptr inbounds nuw i8, ptr %0, i64 4
  %9 = load i32, ptr %8, align 4
  %10 = and i32 %9, -134217728
  %11 = or disjoint i32 %10, 4
  store i32 %11, ptr %8, align 4
  %12 = getelementptr inbounds i8, ptr %0, i64 -128
  %13 = load ptr, ptr %12, align 8
  %.not.i.i.i = icmp eq ptr %13, null
  br i1 %.not.i.i.i, label %22, label %14

14:                                               ; preds = %5
  %15 = getelementptr inbounds i8, ptr %0, i64 -120
  %16 = load ptr, ptr %15, align 8
  %17 = getelementptr inbounds i8, ptr %0, i64 -112
  %18 = load ptr, ptr %17, align 8
  store ptr %16, ptr %18, align 8
  %.not.i.i.i.i = icmp eq ptr %16, null
  br i1 %.not.i.i.i.i, label %22, label %19

19:                                               ; preds = %14
  %20 = load ptr, ptr %17, align 8
  %21 = getelementptr inbounds nuw i8, ptr %16, i64 16
  store ptr %20, ptr %21, align 8
  br label %22

22:                                               ; preds = %5, %14, %19
  store ptr %1, ptr %12, align 8
  %23 = getelementptr inbounds nuw i8, ptr %1, i64 16
  %24 = load ptr, ptr %23, align 8
  %25 = getelementptr inbounds i8, ptr %0, i64 -120
  store ptr %24, ptr %25, align 8
  %.not.i.i.i.i.i = icmp eq ptr %24, null
  br i1 %.not.i.i.i.i.i, label %_ZN4llvm15ConstantPtrAuth10setOperandEjPNS_8ConstantE.exit, label %26

26:                                               ; preds = %22
  %27 = getelementptr inbounds nuw i8, ptr %24, i64 16
  store ptr %25, ptr %27, align 8
  br label %_ZN4llvm15ConstantPtrAuth10setOperandEjPNS_8ConstantE.exit

_ZN4llvm15ConstantPtrAuth10setOperandEjPNS_8ConstantE.exit: ; preds = %22, %26
  %28 = getelementptr inbounds i8, ptr %0, i64 -112
  store ptr %23, ptr %28, align 8
  store ptr %12, ptr %23, align 8
  %29 = getelementptr inbounds i8, ptr %0, i64 -96
  %30 = load ptr, ptr %29, align 8
  %.not.i.i.i6 = icmp eq ptr %30, null
  br i1 %.not.i.i.i6, label %_ZN4llvm3Use14removeFromListEv.exit.i.i.i8, label %31

31:                                               ; preds = %_ZN4llvm15ConstantPtrAuth10setOperandEjPNS_8ConstantE.exit
  %32 = getelementptr inbounds i8, ptr %0, i64 -88
  %33 = load ptr, ptr %32, align 8
  %34 = getelementptr inbounds i8, ptr %0, i64 -80
  %35 = load ptr, ptr %34, align 8
  store ptr %33, ptr %35, align 8
  %.not.i.i.i.i7 = icmp eq ptr %33, null
  br i1 %.not.i.i.i.i7, label %_ZN4llvm3Use14removeFromListEv.exit.i.i.i8, label %36

36:                                               ; preds = %31
  %37 = load ptr, ptr %34, align 8
  %38 = getelementptr inbounds nuw i8, ptr %33, i64 16
  store ptr %37, ptr %38, align 8
  br label %_ZN4llvm3Use14removeFromListEv.exit.i.i.i8

_ZN4llvm3Use14removeFromListEv.exit.i.i.i8:       ; preds = %36, %31, %_ZN4llvm15ConstantPtrAuth10setOperandEjPNS_8ConstantE.exit
  store ptr %2, ptr %29, align 8
  %.not4.i.i.i9 = icmp eq ptr %2, null
  br i1 %.not4.i.i.i9, label %_ZN4llvm15ConstantPtrAuth10setOperandEjPNS_8ConstantE.exit12, label %39

39:                                               ; preds = %_ZN4llvm3Use14removeFromListEv.exit.i.i.i8
  %40 = getelementptr inbounds nuw i8, ptr %2, i64 16
  %41 = load ptr, ptr %40, align 8
  %42 = getelementptr inbounds i8, ptr %0, i64 -88
  store ptr %41, ptr %42, align 8
  %.not.i.i.i.i.i10 = icmp eq ptr %41, null
  br i1 %.not.i.i.i.i.i10, label %_ZN4llvm5Value6addUseERNS_3UseE.exit.i.i.i11, label %43

43:                                               ; preds = %39
  %44 = getelementptr inbounds nuw i8, ptr %41, i64 16
  store ptr %42, ptr %44, align 8
  br label %_ZN4llvm5Value6addUseERNS_3UseE.exit.i.i.i11

_ZN4llvm5Value6addUseERNS_3UseE.exit.i.i.i11:     ; preds = %43, %39
  %45 = getelementptr inbounds i8, ptr %0, i64 -80
  store ptr %40, ptr %45, align 8
  store ptr %29, ptr %40, align 8
  br label %_ZN4llvm15ConstantPtrAuth10setOperandEjPNS_8ConstantE.exit12

_ZN4llvm15ConstantPtrAuth10setOperandEjPNS_8ConstantE.exit12: ; preds = %_ZN4llvm3Use14removeFromListEv.exit.i.i.i8, %_ZN4llvm5Value6addUseERNS_3UseE.exit.i.i.i11
  %46 = getelementptr inbounds i8, ptr %0, i64 -64
  %47 = load ptr, ptr %46, align 8
  %.not.i.i.i13 = icmp eq ptr %47, null
  br i1 %.not.i.i.i13, label %_ZN4llvm3Use14removeFromListEv.exit.i.i.i15, label %48

48:                                               ; preds = %_ZN4llvm15ConstantPtrAuth10setOperandEjPNS_8ConstantE.exit12
  %49 = getelementptr inbounds i8, ptr %0, i64 -56
  %50 = load ptr, ptr %49, align 8
  %51 = getelementptr inbounds i8, ptr %0, i64 -48
  %52 = load ptr, ptr %51, align 8
  store ptr %50, ptr %52, align 8
  %.not.i.i.i.i14 = icmp eq ptr %50, null
  br i1 %.not.i.i.i.i14, label %_ZN4llvm3Use14removeFromListEv.exit.i.i.i15, label %53

53:                                               ; preds = %48
  %54 = load ptr, ptr %51, align 8
  %55 = getelementptr inbounds nuw i8, ptr %50, i64 16
  store ptr %54, ptr %55, align 8
  br label %_ZN4llvm3Use14removeFromListEv.exit.i.i.i15

_ZN4llvm3Use14removeFromListEv.exit.i.i.i15:      ; preds = %53, %48, %_ZN4llvm15ConstantPtrAuth10setOperandEjPNS_8ConstantE.exit12
  store ptr %3, ptr %46, align 8
  %.not4.i.i.i16 = icmp eq ptr %3, null
  br i1 %.not4.i.i.i16, label %_ZN4llvm15ConstantPtrAuth10setOperandEjPNS_8ConstantE.exit19, label %56

56:                                               ; preds = %_ZN4llvm3Use14removeFromListEv.exit.i.i.i15
  %57 = getelementptr inbounds nuw i8, ptr %3, i64 16
  %58 = load ptr, ptr %57, align 8
  %59 = getelementptr inbounds i8, ptr %0, i64 -56
  store ptr %58, ptr %59, align 8
  %.not.i.i.i.i.i17 = icmp eq ptr %58, null
  br i1 %.not.i.i.i.i.i17, label %_ZN4llvm5Value6addUseERNS_3UseE.exit.i.i.i18, label %60

60:                                               ; preds = %56
  %61 = getelementptr inbounds nuw i8, ptr %58, i64 16
  store ptr %59, ptr %61, align 8
  br label %_ZN4llvm5Value6addUseERNS_3UseE.exit.i.i.i18

_ZN4llvm5Value6addUseERNS_3UseE.exit.i.i.i18:     ; preds = %60, %56
  %62 = getelementptr inbounds i8, ptr %0, i64 -48
  store ptr %57, ptr %62, align 8
  store ptr %46, ptr %57, align 8
  br label %_ZN4llvm15ConstantPtrAuth10setOperandEjPNS_8ConstantE.exit19

_ZN4llvm15ConstantPtrAuth10setOperandEjPNS_8ConstantE.exit19: ; preds = %_ZN4llvm3Use14removeFromListEv.exit.i.i.i15, %_ZN4llvm5Value6addUseERNS_3UseE.exit.i.i.i18
  %63 = getelementptr inbounds i8, ptr %0, i64 -32
  %64 = load ptr, ptr %63, align 8
  %.not.i.i.i20 = icmp eq ptr %64, null
  br i1 %.not.i.i.i20, label %_ZN4llvm3Use14removeFromListEv.exit.i.i.i22, label %65

65:                                               ; preds = %_ZN4llvm15ConstantPtrAuth10setOperandEjPNS_8ConstantE.exit19
  %66 = getelementptr inbounds i8, ptr %0, i64 -24
  %67 = load ptr, ptr %66, align 8
  %68 = getelementptr inbounds i8, ptr %0, i64 -16
  %69 = load ptr, ptr %68, align 8
  store ptr %67, ptr %69, align 8
  %.not.i.i.i.i21 = icmp eq ptr %67, null
  br i1 %.not.i.i.i.i21, label %_ZN4llvm3Use14removeFromListEv.exit.i.i.i22, label %70

70:                                               ; preds = %65
  %71 = load ptr, ptr %68, align 8
  %72 = getelementptr inbounds nuw i8, ptr %67, i64 16
  store ptr %71, ptr %72, align 8
  br label %_ZN4llvm3Use14removeFromListEv.exit.i.i.i22

_ZN4llvm3Use14removeFromListEv.exit.i.i.i22:      ; preds = %70, %65, %_ZN4llvm15ConstantPtrAuth10setOperandEjPNS_8ConstantE.exit19
  store ptr %4, ptr %63, align 8
  %.not4.i.i.i23 = icmp eq ptr %4, null
  br i1 %.not4.i.i.i23, label %_ZN4llvm15ConstantPtrAuth10setOperandEjPNS_8ConstantE.exit26, label %73

73:                                               ; preds = %_ZN4llvm3Use14removeFromListEv.exit.i.i.i22
  %74 = getelementptr inbounds nuw i8, ptr %4, i64 16
  %75 = load ptr, ptr %74, align 8
  %76 = getelementptr inbounds i8, ptr %0, i64 -24
  store ptr %75, ptr %76, align 8
  %.not.i.i.i.i.i24 = icmp eq ptr %75, null
  br i1 %.not.i.i.i.i.i24, label %_ZN4llvm5Value6addUseERNS_3UseE.exit.i.i.i25, label %77

77:                                               ; preds = %73
  %78 = getelementptr inbounds nuw i8, ptr %75, i64 16
  store ptr %76, ptr %78, align 8
  br label %_ZN4llvm5Value6addUseERNS_3UseE.exit.i.i.i25

_ZN4llvm5Value6addUseERNS_3UseE.exit.i.i.i25:     ; preds = %77, %73
  %79 = getelementptr inbounds i8, ptr %0, i64 -16
  store ptr %74, ptr %79, align 8
  store ptr %63, ptr %74, align 8
  br label %_ZN4llvm15ConstantPtrAuth10setOperandEjPNS_8ConstantE.exit26

_ZN4llvm15ConstantPtrAuth10setOperandEjPNS_8ConstantE.exit26: ; preds = %_ZN4llvm3Use14removeFromListEv.exit.i.i.i22, %_ZN4llvm5Value6addUseERNS_3UseE.exit.i.i.i25
  ret void
}